target datalayout = "e-m:e-p270:32:32-p271:32:32-p272:64:64-i64:64-i128:128-f80:128-n8:16:32:64-S128"
target triple = "x86_64-pc-linux-gnu"

%struct._ir_strtab = type { ptr, i32, i32, i32, i32, ptr, i32, i32 }
%struct._ir_strtab_bucket = type { i32, i32, ptr, i32, i32 }

; Function Attrs: nounwind uwtable
define hidden void @ir_strtab_apply(ptr noundef %0, ptr noundef %1) #0 {
  %3 = alloca ptr, align 8
  %4 = alloca ptr, align 8
  %5 = alloca i32, align 4
  %6 = alloca ptr, align 8
  store ptr %0, ptr %3, align 8, !tbaa !4
  store ptr %1, ptr %4, align 8, !tbaa !35
  call void @llvm.lifetime.start.p0(i64 4, ptr %5) #10
  store i32 0, ptr %5, align 4, !tbaa !9
  br label %7

7:                                                ; preds = %30, %2
  %8 = load i32, ptr %5, align 4, !tbaa !9
  %9 = load ptr, ptr %3, align 8, !tbaa !4
  %10 = getelementptr inbounds nuw %struct._ir_strtab, ptr %9, i32 0, i32 3
  %11 = load i32, ptr %10, align 8, !tbaa !17
  %12 = icmp ult i32 %8, %11
  br i1 %12, label %13, label %33

13:                                               ; preds = %7
  call void @llvm.lifetime.start.p0(i64 8, ptr %6) #10
  %14 = load ptr, ptr %3, align 8, !tbaa !4
  %15 = getelementptr inbounds nuw %struct._ir_strtab, ptr %14, i32 0, i32 0
  %16 = load ptr, ptr %15, align 8, !tbaa !13
  %17 = load i32, ptr %5, align 4, !tbaa !9
  %18 = zext i32 %17 to i64
  %19 = getelementptr inbounds nuw %struct._ir_strtab_bucket, ptr %16, i64 %18
  store ptr %19, ptr %6, align 8, !tbaa !22
  %20 = load ptr, ptr %4, align 8, !tbaa !35
  %21 = load ptr, ptr %6, align 8, !tbaa !22
  %22 = getelementptr inbounds nuw %struct._ir_strtab_bucket, ptr %21, i32 0, i32 2
  %23 = load ptr, ptr %22, align 8, !tbaa !27
  %24 = load ptr, ptr %6, align 8, !tbaa !22
  %25 = getelementptr inbounds nuw %struct._ir_strtab_bucket, ptr %24, i32 0, i32 1
  %26 = load i32, ptr %25, align 4, !tbaa !26
  %27 = load ptr, ptr %6, align 8, !tbaa !22
  %28 = getelementptr inbounds nuw %struct._ir_strtab_bucket, ptr %27, i32 0, i32 4
  %29 = load i32, ptr %28, align 4, !tbaa !28
  call void %20(ptr noundef %23, i32 noundef %26, i32 noundef %29)
  call void @llvm.lifetime.end.p0(i64 8, ptr %6) #10
  br label %30

30:                                               ; preds = %13
  %31 = load i32, ptr %5, align 4, !tbaa !9
  %32 = add i32 %31, 1
  store i32 %32, ptr %5, align 4, !tbaa !9
  br label %7

33:                                               ; preds = %7
  call void @llvm.lifetime.end.p0(i64 4, ptr %5) #10
  ret void
}