; Function Attrs: nounwind uwtable
define hidden void @ir_strtab_apply(ptr noundef readonly captures(none) %0, ptr noundef readonly captures(none) %1) local_unnamed_addr #0 {
  %3 = getelementptr inbounds nuw i8, ptr %0, i64 16
  %4 = load i32, ptr %3, align 8, !tbaa !13
  %.not = icmp eq i32 %4, 0
  br i1 %.not, label %._crit_edge, label %.lr.ph

.lr.ph:                                           ; preds = %2, %.lr.ph
  %indvars.iv = phi i64 [ %indvars.iv.next, %.lr.ph ], [ 0, %2 ]
  %5 = load ptr, ptr %0, align 8, !tbaa !4
  %6 = getelementptr inbounds nuw %struct._ir_strtab_bucket, ptr %5, i64 %indvars.iv
  %7 = getelementptr inbounds nuw i8, ptr %6, i64 8
  %8 = load ptr, ptr %7, align 8, !tbaa !23
  %9 = getelementptr inbounds nuw i8, ptr %6, i64 4
  %10 = load i32, ptr %9, align 4, !tbaa !22
  %11 = getelementptr inbounds nuw i8, ptr %6, i64 20
  %12 = load i32, ptr %11, align 4, !tbaa !24
  tail call void %1(ptr noundef %8, i32 noundef %10, i32 noundef %12) #12
  %indvars.iv.next = add nuw nsw i64 %indvars.iv, 1
  %13 = load i32, ptr %3, align 8, !tbaa !13
  %14 = zext i32 %13 to i64
  %15 = icmp samesign ult i64 %indvars.iv.next, %14
  br i1 %15, label %.lr.ph, label %._crit_edge

._crit_edge:                                      ; preds = %.lr.ph, %2
  ret void
}